; Function Attrs: nounwind uwtable
define internal fastcc noalias nonnull ptr @_init_l_Lean_Meta_Grind_EMatch_instInhabitedContext___closed__2() unnamed_addr #0 {
  %1 = load ptr, ptr @l_Lean_Meta_Grind_EMatch_instInhabitedChoice___closed__1, align 8, !tbaa !4
  %2 = load ptr, ptr @l_Lean_Meta_Grind_EMatch_instInhabitedCnstr___closed__3, align 8, !tbaa !4
  %3 = load ptr, ptr @l_Lean_Meta_Grind_EMatch_instInhabitedContext___closed__1, align 8, !tbaa !4
  tail call void @lean_inc_heartbeat() #5
  %4 = tail call noalias ptr @mi_malloc_small(i64 noundef 64) #5
  %5 = icmp eq ptr %4, null
  br i1 %5, label %6, label %lean_alloc_ctor.exit

6:                                                ; preds = %0
  tail call void @lean_internal_panic_out_of_memory() #6
  unreachable

lean_alloc_ctor.exit:                             ; preds = %0
  %7 = getelementptr inbounds nuw i8, ptr %4, i64 4
  %8 = getelementptr inbounds nuw i8, ptr %4, i64 56
  store i64 0, ptr %8, align 8, !tbaa !12
  store i32 1, ptr %4, align 4, !tbaa !8
  store i32 393280, ptr %7, align 4
  %9 = getelementptr inbounds nuw i8, ptr %4, i64 8
  store ptr %1, ptr %9, align 8, !tbaa !4
  %10 = getelementptr inbounds nuw i8, ptr %4, i64 16
  store ptr %2, ptr %10, align 8, !tbaa !4
  %11 = getelementptr inbounds nuw i8, ptr %4, i64 24
  store ptr inttoptr (i64 1 to ptr), ptr %11, align 8, !tbaa !4
  %12 = getelementptr inbounds nuw i8, ptr %4, i64 32
  store ptr inttoptr (i64 1 to ptr), ptr %12, align 8, !tbaa !4
  %13 = getelementptr inbounds nuw i8, ptr %4, i64 40
  store ptr inttoptr (i64 1 to ptr), ptr %13, align 8, !tbaa !4
  %14 = getelementptr inbounds nuw i8, ptr %4, i64 48
  store ptr %3, ptr %14, align 8, !tbaa !4
  ret ptr %4
}